target datalayout = "e-m:e-p270:32:32-p271:32:32-p272:64:64-i64:64-i128:128-f80:128-n8:16:32:64-S128"
target triple = "x86_64-pc-linux-gnu"

%"struct.xgboost::GlobalConfiguration" = type { %"struct.xgboost::XGBoostParameter", i32, i8, i32 }
%"struct.xgboost::XGBoostParameter" = type { i8 }

@_ZZN4dmlc16ThreadLocalStoreIN7xgboost19GlobalConfigurationEE3GetEvE4inst = linkonce_odr thread_local global { i8, i32, i8, i32 } { i8 0, i32 1, i8 0, i32 0 }, comdat, align 4

; Function Attrs: mustprogress nounwind uwtable
define linkonce_odr noundef ptr @_ZN4dmlc16ThreadLocalStoreIN7xgboost19GlobalConfigurationEE3GetEv() #7 comdat align 2 {
  %1 = call align 4 ptr @llvm.threadlocal.address.p0(ptr align 4 @_ZZN4dmlc16ThreadLocalStoreIN7xgboost19GlobalConfigurationEE3GetEvE4inst)
  ret ptr %1
}

; Function Attrs: mustprogress uwtable
define noundef zeroext i1 @_ZN7xgboost13ConsoleLogger9ShouldLogENS0_12LogVerbosityE(i32 noundef %0) #4 align 2 {
  %2 = alloca i32, align 4
  store i32 %0, ptr %2, align 4, !tbaa !31
  %3 = load i32, ptr %2, align 4, !tbaa !31
  %4 = call noundef ptr @_ZN4dmlc16ThreadLocalStoreIN7xgboost19GlobalConfigurationEE3GetEv()
  %5 = getelementptr inbounds nuw %"struct.xgboost::GlobalConfiguration", ptr %4, i32 0, i32 1
  %6 = load i32, ptr %5, align 4, !tbaa !32
  %7 = icmp sle i32 %3, %6
  br i1 %7, label %11, label %8

8:                                                ; preds = %1
  %9 = load i32, ptr %2, align 4, !tbaa !31
  %10 = icmp eq i32 %9, 4
  br label %11

11:                                               ; preds = %8, %1
  %12 = phi i1 [ true, %1 ], [ %10, %8 ]
  ret i1 %12
}