; Function Attrs: mustprogress nofree norecurse nosync nounwind willreturn memory(read, argmem: none, inaccessiblemem: none) uwtable
define noundef zeroext i1 @_ZN7xgboost13ConsoleLogger9ShouldLogENS0_12LogVerbosityE(i32 noundef %0) local_unnamed_addr #6 align 2 {
  %2 = tail call noundef align 4 ptr @llvm.threadlocal.address.p0(ptr align 4 @_ZZN4dmlc16ThreadLocalStoreIN7xgboost19GlobalConfigurationEE3GetEvE4inst)
  %3 = getelementptr inbounds nuw i8, ptr %2, i64 4
  %4 = load i32, ptr %3, align 4, !tbaa !25
  %5 = icmp sle i32 %0, %4
  %6 = icmp eq i32 %0, 4
  %7 = or i1 %6, %5
  ret i1 %7
}